; Function Attrs: nounwind uwtable
define internal noalias ptr @H5EA__test_crt_dbg_context(ptr readnone captures(none) %0, i64 %1) #0 {
  %3 = tail call noalias ptr @H5FL_reg_malloc(ptr noundef nonnull @H5_H5EA__ctx_cb_t_reg_free_list) #7
  %4 = icmp eq ptr %3, null
  br i1 %4, label %5, label %9

5:                                                ; preds = %2
  %6 = load i64, ptr @H5E_EARRAY_g, align 8
  %7 = load i64, ptr @H5E_CANTALLOC_g, align 8
  %8 = tail call i32 (ptr, ptr, i32, i64, i64, ptr, ...) @H5E_printf_stack(ptr noundef nonnull @.str.1, ptr noundef nonnull @__func__.H5EA__test_crt_dbg_context, i32 noundef 332, i64 noundef %6, i64 noundef %7, ptr noundef nonnull @.str.2) #7
  br label %9

9:                                                ; preds = %2, %5
  ret ptr %3
}